target datalayout = "e-m:e-p270:32:32-p271:32:32-p272:64:64-i64:64-i128:128-f80:128-n8:16:32:64-S128"
target triple = "x86_64-pc-linux-gnu"

%struct.ssl_ctx_st = type { ptr, %union.crypto_mutex_st, i16, i16, ptr, ptr, ptr, ptr, ptr, ptr, i64, ptr, ptr, i32, i32, i64, ptr, ptr, ptr, i32, ptr, ptr, ptr, ptr, ptr, ptr, %struct.crypto_ex_data_st, ptr, ptr, ptr, ptr, i32, i32, i32, ptr, ptr, ptr, i32, i32, [32 x i8], ptr, ptr, ptr, ptr, i16, ptr, ptr, [16 x i8], [16 x i8], [16 x i8], ptr, ptr, ptr, ptr, i8, ptr, ptr, ptr, ptr, ptr, ptr, ptr, i32, ptr, i64, ptr, ptr, ptr, i64, ptr, i64, ptr, ptr, i8, ptr, i32 }
%union.crypto_mutex_st = type { double, [48 x i8] }
%struct.crypto_ex_data_st = type { ptr }
%struct.ssl_st = type { i32, i16, i16, ptr, ptr, ptr, ptr, ptr, i32, i32, ptr, ptr, i32, i32, ptr, ptr, ptr, ptr, ptr, ptr, ptr, ptr, i32, i32, [32 x i8], ptr, ptr, ptr, ptr, ptr, ptr, ptr, i64, %struct.crypto_ex_data_st, ptr, i32, i32, i32, i32, i16, ptr, i32, i64, ptr, ptr, ptr, ptr, ptr, ptr, i32, i32, ptr, ptr, i8, i8, i32 }
%struct.cbb_st = type { ptr, ptr, i64, i8, i8, i8 }

@.str = private unnamed_addr constant [117 x i8] c"generated/home/dtcxzyw/WorkSpace/Projects/compilers/llvm-opt-benchmark/bench/libquic/libquic/boringssl/ssl/ssl_lib.c\00", align 1
@.str.3 = private unnamed_addr constant [2 x i8] c" \00", align 1
@.str.4 = private unnamed_addr constant [15 x i8] c"CLIENT_RANDOM \00", align 1
@cbb_add_hex.hextable = internal constant [17 x i8] c"0123456789abcdef\00", align 16

; Function Attrs: nounwind uwtable
define internal i32 @cbb_add_hex(ptr noundef %0, ptr noundef %1, i64 noundef %2) #0 {
  %4 = alloca i32, align 4
  %5 = alloca ptr, align 8
  %6 = alloca ptr, align 8
  %7 = alloca i64, align 8
  %8 = alloca ptr, align 8
  %9 = alloca i64, align 8
  %10 = alloca i32, align 4
  store ptr %0, ptr %5, align 8, !tbaa !263
  store ptr %1, ptr %6, align 8, !tbaa !55
  store i64 %2, ptr %7, align 8, !tbaa !174
  call void @llvm.lifetime.start.p0(i64 8, ptr %8) #8
  call void @llvm.lifetime.start.p0(i64 8, ptr %9) #8
  %11 = load ptr, ptr %5, align 8, !tbaa !263
  %12 = load i64, ptr %7, align 8, !tbaa !174
  %13 = mul i64 %12, 2
  %14 = call i32 @CBB_add_space(ptr noundef %11, ptr noundef %8, i64 noundef %13)
  %15 = icmp ne i32 %14, 0
  br i1 %15, label %17, label %16

16:                                               ; preds = %3
  store i32 0, ptr %4, align 4
  store i32 1, ptr %10, align 4
  br label %49

17:                                               ; preds = %3
  store i64 0, ptr %9, align 8, !tbaa !174
  br label %18

18:                                               ; preds = %45, %17
  %19 = load i64, ptr %9, align 8, !tbaa !174
  %20 = load i64, ptr %7, align 8, !tbaa !174
  %21 = icmp ult i64 %19, %20
  br i1 %21, label %22, label %48

22:                                               ; preds = %18
  %23 = load ptr, ptr %6, align 8, !tbaa !55
  %24 = load i64, ptr %9, align 8, !tbaa !174
  %25 = getelementptr inbounds nuw i8, ptr %23, i64 %24
  %26 = load i8, ptr %25, align 1, !tbaa !60
  %27 = zext i8 %26 to i32
  %28 = ashr i32 %27, 4
  %29 = sext i32 %28 to i64
  %30 = getelementptr inbounds [17 x i8], ptr @cbb_add_hex.hextable, i64 0, i64 %29
  %31 = load i8, ptr %30, align 1, !tbaa !60
  %32 = load ptr, ptr %8, align 8, !tbaa !55
  %33 = getelementptr inbounds nuw i8, ptr %32, i32 1
  store ptr %33, ptr %8, align 8, !tbaa !55
  store i8 %31, ptr %32, align 1, !tbaa !60
  %34 = load ptr, ptr %6, align 8, !tbaa !55
  %35 = load i64, ptr %9, align 8, !tbaa !174
  %36 = getelementptr inbounds nuw i8, ptr %34, i64 %35
  %37 = load i8, ptr %36, align 1, !tbaa !60
  %38 = zext i8 %37 to i32
  %39 = and i32 %38, 15
  %40 = sext i32 %39 to i64
  %41 = getelementptr inbounds [17 x i8], ptr @cbb_add_hex.hextable, i64 0, i64 %40
  %42 = load i8, ptr %41, align 1, !tbaa !60
  %43 = load ptr, ptr %8, align 8, !tbaa !55
  %44 = getelementptr inbounds nuw i8, ptr %43, i32 1
  store ptr %44, ptr %8, align 8, !tbaa !55
  store i8 %42, ptr %43, align 1, !tbaa !60
  br label %45

45:                                               ; preds = %22
  %46 = load i64, ptr %9, align 8, !tbaa !174
  %47 = add i64 %46, 1
  store i64 %47, ptr %9, align 8, !tbaa !174
  br label %18, !llvm.loop !265

48:                                               ; preds = %18
  store i32 1, ptr %4, align 4
  store i32 1, ptr %10, align 4
  br label %49

49:                                               ; preds = %48, %16
  call void @llvm.lifetime.end.p0(i64 8, ptr %9) #8
  call void @llvm.lifetime.end.p0(i64 8, ptr %8) #8
  %50 = load i32, ptr %4, align 4
  ret i32 %50
}

; Function Attrs: nounwind uwtable
define hidden i32 @ssl_log_master_secret(ptr noundef %0, ptr noundef %1, i64 noundef %2, ptr noundef %3, i64 noundef %4) #0 {
  %6 = alloca i32, align 4
  %7 = alloca ptr, align 8
  %8 = alloca ptr, align 8
  %9 = alloca i64, align 8
  %10 = alloca ptr, align 8
  %11 = alloca i64, align 8
  %12 = alloca %struct.cbb_st, align 8
  %13 = alloca ptr, align 8
  %14 = alloca i64, align 8
  %15 = alloca i32, align 4
  store ptr %0, ptr %7, align 8, !tbaa !80
  store ptr %1, ptr %8, align 8, !tbaa !55
  store i64 %2, ptr %9, align 8, !tbaa !174
  store ptr %3, ptr %10, align 8, !tbaa !55
  store i64 %4, ptr %11, align 8, !tbaa !174
  %16 = load ptr, ptr %7, align 8, !tbaa !80
  %17 = getelementptr inbounds nuw %struct.ssl_st, ptr %16, i32 0, i32 31
  %18 = load ptr, ptr %17, align 8, !tbaa !108
  %19 = getelementptr inbounds nuw %struct.ssl_ctx_st, ptr %18, i32 0, i32 71
  %20 = load ptr, ptr %19, align 8, !tbaa !262
  %21 = icmp eq ptr %20, null
  br i1 %21, label %22, label %23

22:                                               ; preds = %5
  store i32 1, ptr %6, align 4
  br label %66

23:                                               ; preds = %5
  %24 = load i64, ptr %9, align 8, !tbaa !174
  %25 = icmp ne i64 %24, 32
  br i1 %25, label %26, label %27

26:                                               ; preds = %23
  call void @ERR_put_error(i32 noundef 16, i32 noundef 0, i32 noundef 68, ptr noundef @.str, i32 noundef 2264)
  store i32 0, ptr %6, align 4
  br label %66

27:                                               ; preds = %23
  call void @llvm.lifetime.start.p0(i64 32, ptr %12) #8
  call void @llvm.lifetime.start.p0(i64 8, ptr %13) #8
  call void @llvm.lifetime.start.p0(i64 8, ptr %14) #8
  %28 = load i64, ptr %11, align 8, !tbaa !174
  %29 = mul i64 %28, 2
  %30 = add i64 79, %29
  %31 = add i64 %30, 1
  %32 = call i32 @CBB_init(ptr noundef %12, i64 noundef %31)
  %33 = icmp ne i32 %32, 0
  br i1 %33, label %34, label %55

34:                                               ; preds = %27
  %35 = call i32 @CBB_add_bytes(ptr noundef %12, ptr noundef @.str.4, i64 noundef 14)
  %36 = icmp ne i32 %35, 0
  br i1 %36, label %37, label %55

37:                                               ; preds = %34
  %38 = load ptr, ptr %8, align 8, !tbaa !55
  %39 = call i32 @cbb_add_hex(ptr noundef %12, ptr noundef %38, i64 noundef 32)
  %40 = icmp ne i32 %39, 0
  br i1 %40, label %41, label %55

41:                                               ; preds = %37
  %42 = call i32 @CBB_add_bytes(ptr noundef %12, ptr noundef @.str.3, i64 noundef 1)
  %43 = icmp ne i32 %42, 0
  br i1 %43, label %44, label %55

44:                                               ; preds = %41
  %45 = load ptr, ptr %10, align 8, !tbaa !55
  %46 = load i64, ptr %11, align 8, !tbaa !174
  %47 = call i32 @cbb_add_hex(ptr noundef %12, ptr noundef %45, i64 noundef %46)
  %48 = icmp ne i32 %47, 0
  br i1 %48, label %49, label %55

49:                                               ; preds = %44
  %50 = call i32 @CBB_add_u8(ptr noundef %12, i8 noundef zeroext 0)
  %51 = icmp ne i32 %50, 0
  br i1 %51, label %52, label %55

52:                                               ; preds = %49
  %53 = call i32 @CBB_finish(ptr noundef %12, ptr noundef %13, ptr noundef %14)
  %54 = icmp ne i32 %53, 0
  br i1 %54, label %56, label %55

55:                                               ; preds = %52, %49, %44, %41, %37, %34, %27
  call void @CBB_cleanup(ptr noundef %12)
  store i32 0, ptr %6, align 4
  store i32 1, ptr %15, align 4
  br label %65

56:                                               ; preds = %52
  %57 = load ptr, ptr %7, align 8, !tbaa !80
  %58 = getelementptr inbounds nuw %struct.ssl_st, ptr %57, i32 0, i32 31
  %59 = load ptr, ptr %58, align 8, !tbaa !108
  %60 = getelementptr inbounds nuw %struct.ssl_ctx_st, ptr %59, i32 0, i32 71
  %61 = load ptr, ptr %60, align 8, !tbaa !262
  %62 = load ptr, ptr %7, align 8, !tbaa !80
  %63 = load ptr, ptr %13, align 8, !tbaa !55
  call void %61(ptr noundef %62, ptr noundef %63)
  %64 = load ptr, ptr %13, align 8, !tbaa !55
  call void @free(ptr noundef %64) #8
  store i32 1, ptr %6, align 4
  store i32 1, ptr %15, align 4
  br label %65

65:                                               ; preds = %56, %55
  call void @llvm.lifetime.end.p0(i64 8, ptr %14) #8
  call void @llvm.lifetime.end.p0(i64 8, ptr %13) #8
  call void @llvm.lifetime.end.p0(i64 32, ptr %12) #8
  br label %66

66:                                               ; preds = %65, %26, %22
  %67 = load i32, ptr %6, align 4
  ret i32 %67
}