; Function Attrs: nounwind uwtable
define hidden range(i32 0, 2) i32 @ssl_log_master_secret(ptr noundef %0, ptr noundef readonly captures(none) %1, i64 noundef %2, ptr noundef readonly captures(none) %3, i64 noundef %4) local_unnamed_addr #0 {
  %6 = alloca ptr, align 8
  %7 = alloca ptr, align 8
  %8 = alloca %struct.cbb_st, align 8
  %9 = alloca ptr, align 8
  %10 = alloca i64, align 8
  %11 = getelementptr inbounds nuw i8, ptr %0, i64 232
  %12 = load ptr, ptr %11, align 8, !tbaa !97
  %13 = getelementptr inbounds nuw i8, ptr %12, i64 632
  %14 = load ptr, ptr %13, align 8, !tbaa !234
  %15 = icmp eq ptr %14, null
  br i1 %15, label %73, label %16

16:                                               ; preds = %5
  %.not = icmp eq i64 %2, 32
  br i1 %.not, label %18, label %17

17:                                               ; preds = %16
  tail call void @ERR_put_error(i32 noundef 16, i32 noundef 0, i32 noundef 68, ptr noundef nonnull @.str, i32 noundef 2264) #21
  br label %73

18:                                               ; preds = %16
  call void @llvm.lifetime.start.p0(i64 32, ptr nonnull %8) #21
  call void @llvm.lifetime.start.p0(i64 8, ptr nonnull %9) #21
  call void @llvm.lifetime.start.p0(i64 8, ptr nonnull %10) #21
  %19 = shl i64 %4, 1
  %20 = add i64 %19, 80
  %21 = call i32 @CBB_init(ptr noundef nonnull %8, i64 noundef %20) #21
  %.not8 = icmp eq i32 %21, 0
  br i1 %.not8, label %65, label %22

22:                                               ; preds = %18
  %23 = call i32 @CBB_add_bytes(ptr noundef nonnull %8, ptr noundef nonnull @.str.4, i64 noundef 14) #21
  %.not9 = icmp eq i32 %23, 0
  br i1 %.not9, label %65, label %24

24:                                               ; preds = %22
  call void @llvm.lifetime.start.p0(i64 8, ptr nonnull %7) #21
  %25 = call i32 @CBB_add_space(ptr noundef nonnull %8, ptr noundef nonnull %7, i64 noundef 64) #21
  %.not.i = icmp eq i32 %25, 0
  br i1 %.not.i, label %cbb_add_hex.exit.thread, label %.lr.ph.i

cbb_add_hex.exit.thread:                          ; preds = %24
  call void @llvm.lifetime.end.p0(i64 8, ptr nonnull %7) #21
  br label %65

.lr.ph.i:                                         ; preds = %24, %.lr.ph.i
  %.010.i = phi i64 [ %41, %.lr.ph.i ], [ 0, %24 ]
  %26 = getelementptr inbounds nuw i8, ptr %1, i64 %.010.i
  %27 = load i8, ptr %26, align 1, !tbaa !157
  %28 = lshr i8 %27, 4
  %29 = zext nneg i8 %28 to i64
  %30 = getelementptr inbounds nuw [17 x i8], ptr @cbb_add_hex.hextable, i64 0, i64 %29
  %31 = load i8, ptr %30, align 1, !tbaa !157
  %32 = load ptr, ptr %7, align 8, !tbaa !186
  %33 = getelementptr inbounds nuw i8, ptr %32, i64 1
  store ptr %33, ptr %7, align 8, !tbaa !186
  store i8 %31, ptr %32, align 1, !tbaa !157
  %34 = load i8, ptr %26, align 1, !tbaa !157
  %35 = and i8 %34, 15
  %36 = zext nneg i8 %35 to i64
  %37 = getelementptr inbounds nuw [17 x i8], ptr @cbb_add_hex.hextable, i64 0, i64 %36
  %38 = load i8, ptr %37, align 1, !tbaa !157
  %39 = load ptr, ptr %7, align 8, !tbaa !186
  %40 = getelementptr inbounds nuw i8, ptr %39, i64 1
  store ptr %40, ptr %7, align 8, !tbaa !186
  store i8 %38, ptr %39, align 1, !tbaa !157
  %41 = add nuw nsw i64 %.010.i, 1
  %exitcond.not.i = icmp eq i64 %41, 32
  br i1 %exitcond.not.i, label %42, label %.lr.ph.i, !llvm.loop !235

42:                                               ; preds = %.lr.ph.i
  call void @llvm.lifetime.end.p0(i64 8, ptr nonnull %7) #21
  %43 = call i32 @CBB_add_bytes(ptr noundef nonnull %8, ptr noundef nonnull @.str.3, i64 noundef 1) #21
  %.not11 = icmp eq i32 %43, 0
  br i1 %.not11, label %65, label %44

44:                                               ; preds = %42
  call void @llvm.lifetime.start.p0(i64 8, ptr nonnull %6) #21
  %45 = call i32 @CBB_add_space(ptr noundef nonnull %8, ptr noundef nonnull %6, i64 noundef %19) #21
  %.not.i15 = icmp eq i32 %45, 0
  br i1 %.not.i15, label %cbb_add_hex.exit21, label %.preheader.i16

.preheader.i16:                                   ; preds = %44
  %.not11.i = icmp eq i64 %4, 0
  br i1 %.not11.i, label %.loopexit, label %.lr.ph.i17

.lr.ph.i17:                                       ; preds = %.preheader.i16, %.lr.ph.i17
  %.010.i18 = phi i64 [ %61, %.lr.ph.i17 ], [ 0, %.preheader.i16 ]
  %46 = getelementptr inbounds nuw i8, ptr %3, i64 %.010.i18
  %47 = load i8, ptr %46, align 1, !tbaa !157
  %48 = lshr i8 %47, 4
  %49 = zext nneg i8 %48 to i64
  %50 = getelementptr inbounds nuw [17 x i8], ptr @cbb_add_hex.hextable, i64 0, i64 %49
  %51 = load i8, ptr %50, align 1, !tbaa !157
  %52 = load ptr, ptr %6, align 8, !tbaa !186
  %53 = getelementptr inbounds nuw i8, ptr %52, i64 1
  store ptr %53, ptr %6, align 8, !tbaa !186
  store i8 %51, ptr %52, align 1, !tbaa !157
  %54 = load i8, ptr %46, align 1, !tbaa !157
  %55 = and i8 %54, 15
  %56 = zext nneg i8 %55 to i64
  %57 = getelementptr inbounds nuw [17 x i8], ptr @cbb_add_hex.hextable, i64 0, i64 %56
  %58 = load i8, ptr %57, align 1, !tbaa !157
  %59 = load ptr, ptr %6, align 8, !tbaa !186
  %60 = getelementptr inbounds nuw i8, ptr %59, i64 1
  store ptr %60, ptr %6, align 8, !tbaa !186
  store i8 %58, ptr %59, align 1, !tbaa !157
  %61 = add nuw i64 %.010.i18, 1
  %exitcond.not.i19 = icmp eq i64 %61, %4
  br i1 %exitcond.not.i19, label %.loopexit, label %.lr.ph.i17, !llvm.loop !235

cbb_add_hex.exit21:                               ; preds = %44
  call void @llvm.lifetime.end.p0(i64 8, ptr nonnull %6) #21
  br label %65

.loopexit:                                        ; preds = %.lr.ph.i17, %.preheader.i16
  call void @llvm.lifetime.end.p0(i64 8, ptr nonnull %6) #21
  %62 = call i32 @CBB_add_u8(ptr noundef nonnull %8, i8 noundef zeroext 0) #21
  %.not13 = icmp eq i32 %62, 0
  br i1 %.not13, label %65, label %63

63:                                               ; preds = %.loopexit
  %64 = call i32 @CBB_finish(ptr noundef nonnull %8, ptr noundef nonnull %9, ptr noundef nonnull %10) #21
  %.not14 = icmp eq i32 %64, 0
  br i1 %.not14, label %65, label %66

65:                                               ; preds = %cbb_add_hex.exit21, %cbb_add_hex.exit.thread, %63, %.loopexit, %42, %22, %18
  call void @CBB_cleanup(ptr noundef nonnull %8) #21
  br label %72

66:                                               ; preds = %63
  %67 = load ptr, ptr %11, align 8, !tbaa !97
  %68 = getelementptr inbounds nuw i8, ptr %67, i64 632
  %69 = load ptr, ptr %68, align 8, !tbaa !234
  %70 = load ptr, ptr %9, align 8, !tbaa !186
  call void %69(ptr noundef %0, ptr noundef %70) #21
  %71 = load ptr, ptr %9, align 8, !tbaa !186
  call void @free(ptr noundef %71) #21
  br label %72

72:                                               ; preds = %66, %65
  %.1 = phi i32 [ 1, %66 ], [ 0, %65 ]
  call void @llvm.lifetime.end.p0(i64 8, ptr nonnull %10) #21
  call void @llvm.lifetime.end.p0(i64 8, ptr nonnull %9) #21
  call void @llvm.lifetime.end.p0(i64 32, ptr nonnull %8) #21
  br label %73

73:                                               ; preds = %5, %72, %17
  %.0 = phi i32 [ 0, %17 ], [ %.1, %72 ], [ 1, %5 ]
  ret i32 %.0
}